target datalayout = "e-m:e-p270:32:32-p271:32:32-p272:64:64-i64:64-i128:128-f80:128-n8:16:32:64-S128"
target triple = "x86_64-unknown-linux-gnu"

@_ZZ30translateIntrinsicFunctionCodec27FunctionIdentifierCodeGroupE5Basic = internal global [36 x i8] c"\00\00\01\02\03\04\05\06\07\08\09\00\0A\0B\0C\0D\0E\0F\10\11\12\13\14\15\16\17\18\19\1A\1B\1C\1D\1E\1F !", align 16
@_ZZ30translateIntrinsicFunctionCodec27FunctionIdentifierCodeGroupE5Under = internal global [36 x i8] c"\22#$%&'(\00\00\00\00\00\00)*+,-./01234\00\00\00\00567\00\00\00\00", align 16
@_ZZ30translateIntrinsicFunctionCodec27FunctionIdentifierCodeGroupE11DoubleUnder = internal global <{ [22 x i8], [14 x i8] }> <{ [22 x i8] c"\00\00\00\00\00\00\00\00\00\0089:;\00\00<=>\00\00?", [14 x i8] zeroinitializer }>, align 16

; Function Attrs: mustprogress nounwind uwtable
define hidden noundef zeroext i8 @_Z30translateIntrinsicFunctionCodec27FunctionIdentifierCodeGroup(i8 noundef signext %CH, i32 noundef %Group) #0 {
entry:
  %retval = alloca i8, align 1
  %CH.addr = alloca i8, align 1
  %Group.addr = alloca i32, align 4
  %Index = alloca i32, align 4
  store i8 %CH, ptr %CH.addr, align 1
  store i32 %Group, ptr %Group.addr, align 4
  %0 = load i8, ptr %CH.addr, align 1
  %conv = sext i8 %0 to i32
  %cmp = icmp sge i32 %conv, 48
  br i1 %cmp, label %land.lhs.true, label %cond.false

land.lhs.true:                                    ; preds = %entry
  %1 = load i8, ptr %CH.addr, align 1
  %conv1 = sext i8 %1 to i32
  %cmp2 = icmp sle i32 %conv1, 57
  br i1 %cmp2, label %cond.true, label %cond.false

cond.true:                                        ; preds = %land.lhs.true
  %2 = load i8, ptr %CH.addr, align 1
  %conv3 = sext i8 %2 to i32
  %sub = sub nsw i32 %conv3, 48
  br label %cond.end

cond.false:                                       ; preds = %land.lhs.true, %entry
  %3 = load i8, ptr %CH.addr, align 1
  %conv4 = sext i8 %3 to i32
  %sub5 = sub nsw i32 %conv4, 65
  %add = add nsw i32 %sub5, 10
  br label %cond.end

cond.end:                                         ; preds = %cond.false, %cond.true
  %cond = phi i32 [ %sub, %cond.true ], [ %add, %cond.false ]
  store i32 %cond, ptr %Index, align 4
  %4 = load i32, ptr %Group.addr, align 4
  switch i32 %4, label %sw.epilog [
    i32 0, label %sw.bb
    i32 1, label %sw.bb6
    i32 2, label %sw.bb9
  ]

sw.bb:                                            ; preds = %cond.end
  %5 = load i32, ptr %Index, align 4
  %idxprom = sext i32 %5 to i64
  %arrayidx = getelementptr inbounds [36 x i8], ptr @_ZZ30translateIntrinsicFunctionCodec27FunctionIdentifierCodeGroupE5Basic, i64 0, i64 %idxprom
  %6 = load i8, ptr %arrayidx, align 1
  store i8 %6, ptr %retval, align 1
  br label %return

sw.bb6:                                           ; preds = %cond.end
  %7 = load i32, ptr %Index, align 4
  %idxprom7 = sext i32 %7 to i64
  %arrayidx8 = getelementptr inbounds [36 x i8], ptr @_ZZ30translateIntrinsicFunctionCodec27FunctionIdentifierCodeGroupE5Under, i64 0, i64 %idxprom7
  %8 = load i8, ptr %arrayidx8, align 1
  store i8 %8, ptr %retval, align 1
  br label %return

sw.bb9:                                           ; preds = %cond.end
  %9 = load i32, ptr %Index, align 4
  %idxprom10 = sext i32 %9 to i64
  %arrayidx11 = getelementptr inbounds [36 x i8], ptr @_ZZ30translateIntrinsicFunctionCodec27FunctionIdentifierCodeGroupE11DoubleUnder, i64 0, i64 %idxprom10
  %10 = load i8, ptr %arrayidx11, align 1
  store i8 %10, ptr %retval, align 1
  br label %return

sw.epilog:                                        ; preds = %cond.end
  unreachable

return:                                           ; preds = %sw.bb9, %sw.bb6, %sw.bb
  %11 = load i8, ptr %retval, align 1
  ret i8 %11
}