; Function Attrs: mustprogress nofree norecurse nosync nounwind willreturn memory(none) uwtable
define hidden noundef zeroext i8 @_Z30translateIntrinsicFunctionCodec27FunctionIdentifierCodeGroup(i8 noundef signext %CH, i32 noundef %Group) local_unnamed_addr #0 {
entry:
  %0 = sext i32 %Group to i64
  %switch.gep = getelementptr inbounds [3 x ptr], ptr @switch.table._Z30translateIntrinsicFunctionCodec27FunctionIdentifierCodeGroup, i64 0, i64 %0
  %switch.load = load ptr, ptr %switch.gep, align 8
  %1 = add i8 %CH, -48
  %or.cond = icmp ult i8 %1, 10
  %cond.v = select i1 %or.cond, i64 -48, i64 -55
  %conv = sext i8 %CH to i64
  %cond = add nsw i64 %cond.v, %conv
  %arrayidx11 = getelementptr inbounds [36 x i8], ptr %switch.load, i64 0, i64 %cond
  %retval.0 = load i8, ptr %arrayidx11, align 1
  ret i8 %retval.0
}